target datalayout = "e-m:e-p270:32:32-p271:32:32-p272:64:64-i64:64-i128:128-f80:128-n8:16:32:64-S128"
target triple = "x86_64-pc-linux-gnu"

%struct.pmix_object_t = type { %union.pthread_mutex_t, ptr, i32, %struct.pmix_tma }
%union.pthread_mutex_t = type { %struct.__pthread_mutex_s }
%struct.__pthread_mutex_s = type { i32, i32, i32, i32, i32, i16, i16, %struct.__pthread_internal_list }
%struct.__pthread_internal_list = type { ptr, ptr }
%struct.pmix_tma = type { ptr, ptr, ptr, ptr, ptr, ptr, ptr, ptr }
%struct.pmix_mca_base_framework_t = type { ptr, ptr, ptr, ptr, ptr, ptr, i32, i32, ptr, ptr, i32, i32, %struct.pmix_list_t, %struct.pmix_list_t }
%struct.pmix_list_t = type { %struct.pmix_object_t, %struct.pmix_list_item_t, i64 }
%struct.pmix_list_item_t = type { %struct.pmix_object_t, ptr, ptr, i32 }
%struct.pmix_output_desc_t = type { i8, i8, i32, i8, i32, ptr, ptr, i32, ptr, i32, i8, i8, i8, i8, ptr, i32, i32 }
%struct.pmix_buffer_t = type { %struct.pmix_object_t, i8, ptr, ptr, ptr, i64, i64 }
%struct.pmix_modex_data = type { [256 x i8], i32, ptr, i64 }

@pmix_bfrops_base_framework = external global %struct.pmix_mca_base_framework_t, align 8
@pmix_output_info = external global [0 x %struct.pmix_output_desc_t], align 8
@.str.5 = private unnamed_addr constant [31 x i8] c"pmix20_bfrop_unpack_byte * %d\0A\00", align 1
@.str.24 = private unnamed_addr constant [30 x i8] c"pmix20_bfrop_unpack: %d modex\00", align 1

; Function Attrs: nounwind uwtable
define i32 @pmix20_bfrop_unpack_byte(ptr noundef %0, ptr noundef %1, ptr noundef %2, ptr noundef %3, i16 noundef zeroext %4) #0 {
  %6 = alloca i32, align 4
  %7 = alloca ptr, align 8
  %8 = alloca ptr, align 8
  %9 = alloca ptr, align 8
  %10 = alloca ptr, align 8
  %11 = alloca i16, align 2
  store ptr %0, ptr %7, align 8, !tbaa !13
  store ptr %1, ptr %8, align 8, !tbaa !3
  store ptr %2, ptr %9, align 8, !tbaa !3
  store ptr %3, ptr %10, align 8, !tbaa !7
  store i16 %4, ptr %11, align 2, !tbaa !9
  %12 = load i32, ptr getelementptr inbounds nuw (%struct.pmix_mca_base_framework_t, ptr @pmix_bfrops_base_framework, i32 0, i32 11), align 4, !tbaa !15
  %13 = icmp sge i32 %12, 0
  br i1 %13, label %14, label %28

14:                                               ; preds = %5
  %15 = load i32, ptr getelementptr inbounds nuw (%struct.pmix_mca_base_framework_t, ptr @pmix_bfrops_base_framework, i32 0, i32 11), align 4, !tbaa !15
  %16 = icmp slt i32 %15, 64
  br i1 %16, label %17, label %28

17:                                               ; preds = %14
  %18 = load i32, ptr getelementptr inbounds nuw (%struct.pmix_mca_base_framework_t, ptr @pmix_bfrops_base_framework, i32 0, i32 11), align 4, !tbaa !15
  %19 = sext i32 %18 to i64
  %20 = getelementptr inbounds [0 x %struct.pmix_output_desc_t], ptr @pmix_output_info, i64 0, i64 %19
  %21 = getelementptr inbounds nuw %struct.pmix_output_desc_t, ptr %20, i32 0, i32 2
  %22 = load i32, ptr %21, align 4, !tbaa !26
  %23 = icmp sge i32 %22, 20
  br i1 %23, label %24, label %28

24:                                               ; preds = %17
  %25 = load i32, ptr getelementptr inbounds nuw (%struct.pmix_mca_base_framework_t, ptr @pmix_bfrops_base_framework, i32 0, i32 11), align 4, !tbaa !15
  %26 = load ptr, ptr %10, align 8, !tbaa !7
  %27 = load i32, ptr %26, align 4, !tbaa !11
  call void (i32, ptr, ...) @pmix_output(i32 noundef %25, ptr noundef @.str.5, i32 noundef %27)
  br label %28

28:                                               ; preds = %24, %17, %14, %5
  %29 = load ptr, ptr %8, align 8, !tbaa !3
  %30 = load ptr, ptr %10, align 8, !tbaa !7
  %31 = load i32, ptr %30, align 4, !tbaa !11
  %32 = sext i32 %31 to i64
  %33 = call zeroext i1 @pmix_bfrop_too_small(ptr noundef %29, i64 noundef %32)
  br i1 %33, label %34, label %35

34:                                               ; preds = %28
  store i32 -50, ptr %6, align 4
  br label %50

35:                                               ; preds = %28
  %36 = load ptr, ptr %9, align 8, !tbaa !3
  %37 = load ptr, ptr %8, align 8, !tbaa !3
  %38 = getelementptr inbounds nuw %struct.pmix_buffer_t, ptr %37, i32 0, i32 4
  %39 = load ptr, ptr %38, align 8, !tbaa !37
  %40 = load ptr, ptr %10, align 8, !tbaa !7
  %41 = load i32, ptr %40, align 4, !tbaa !11
  %42 = sext i32 %41 to i64
  call void @llvm.memcpy.p0.p0.i64(ptr align 1 %36, ptr align 1 %39, i64 %42, i1 false)
  %43 = load ptr, ptr %10, align 8, !tbaa !7
  %44 = load i32, ptr %43, align 4, !tbaa !11
  %45 = load ptr, ptr %8, align 8, !tbaa !3
  %46 = getelementptr inbounds nuw %struct.pmix_buffer_t, ptr %45, i32 0, i32 4
  %47 = load ptr, ptr %46, align 8, !tbaa !37
  %48 = sext i32 %44 to i64
  %49 = getelementptr inbounds i8, ptr %47, i64 %48
  store ptr %49, ptr %46, align 8, !tbaa !37
  store i32 0, ptr %6, align 4
  br label %50

50:                                               ; preds = %35, %34
  %51 = load i32, ptr %6, align 4
  ret i32 %51
}

; Function Attrs: nounwind uwtable
define i32 @pmix20_bfrop_unpack_modex(ptr noundef %0, ptr noundef %1, ptr noundef %2, ptr noundef %3, i16 noundef zeroext %4) #0 {
  %6 = alloca i32, align 4
  %7 = alloca ptr, align 8
  %8 = alloca ptr, align 8
  %9 = alloca ptr, align 8
  %10 = alloca ptr, align 8
  %11 = alloca i16, align 2
  %12 = alloca ptr, align 8
  %13 = alloca i32, align 4
  %14 = alloca i32, align 4
  %15 = alloca i32, align 4
  %16 = alloca i32, align 4
  %17 = alloca i32, align 4
  store ptr %0, ptr %7, align 8, !tbaa !13
  store ptr %1, ptr %8, align 8, !tbaa !3
  store ptr %2, ptr %9, align 8, !tbaa !3
  store ptr %3, ptr %10, align 8, !tbaa !7
  store i16 %4, ptr %11, align 2, !tbaa !9
  call void @llvm.lifetime.start.p0(i64 8, ptr %12) #11
  call void @llvm.lifetime.start.p0(i64 4, ptr %13) #11
  call void @llvm.lifetime.start.p0(i64 4, ptr %14) #11
  call void @llvm.lifetime.start.p0(i64 4, ptr %15) #11
  call void @llvm.lifetime.start.p0(i64 4, ptr %16) #11
  %18 = load i32, ptr getelementptr inbounds nuw (%struct.pmix_mca_base_framework_t, ptr @pmix_bfrops_base_framework, i32 0, i32 11), align 4, !tbaa !15
  %19 = icmp sge i32 %18, 0
  br i1 %19, label %20, label %34

20:                                               ; preds = %5
  %21 = load i32, ptr getelementptr inbounds nuw (%struct.pmix_mca_base_framework_t, ptr @pmix_bfrops_base_framework, i32 0, i32 11), align 4, !tbaa !15
  %22 = icmp slt i32 %21, 64
  br i1 %22, label %23, label %34

23:                                               ; preds = %20
  %24 = load i32, ptr getelementptr inbounds nuw (%struct.pmix_mca_base_framework_t, ptr @pmix_bfrops_base_framework, i32 0, i32 11), align 4, !tbaa !15
  %25 = sext i32 %24 to i64
  %26 = getelementptr inbounds [0 x %struct.pmix_output_desc_t], ptr @pmix_output_info, i64 0, i64 %25
  %27 = getelementptr inbounds nuw %struct.pmix_output_desc_t, ptr %26, i32 0, i32 2
  %28 = load i32, ptr %27, align 4, !tbaa !26
  %29 = icmp sge i32 %28, 20
  br i1 %29, label %30, label %34

30:                                               ; preds = %23
  %31 = load i32, ptr getelementptr inbounds nuw (%struct.pmix_mca_base_framework_t, ptr @pmix_bfrops_base_framework, i32 0, i32 11), align 4, !tbaa !15
  %32 = load ptr, ptr %10, align 8, !tbaa !7
  %33 = load i32, ptr %32, align 4, !tbaa !11
  call void (i32, ptr, ...) @pmix_output(i32 noundef %31, ptr noundef @.str.24, i32 noundef %33)
  br label %34

34:                                               ; preds = %30, %23, %20, %5
  %35 = load ptr, ptr %9, align 8, !tbaa !3
  store ptr %35, ptr %12, align 8, !tbaa !154
  %36 = load ptr, ptr %10, align 8, !tbaa !7
  %37 = load i32, ptr %36, align 4, !tbaa !11
  store i32 %37, ptr %14, align 4, !tbaa !11
  store i32 0, ptr %13, align 4, !tbaa !11
  br label %38

38:                                               ; preds = %101, %34
  %39 = load i32, ptr %13, align 4, !tbaa !11
  %40 = load i32, ptr %14, align 4, !tbaa !11
  %41 = icmp slt i32 %39, %40
  br i1 %41, label %42, label %104

42:                                               ; preds = %38
  %43 = load ptr, ptr %12, align 8, !tbaa !154
  %44 = load i32, ptr %13, align 4, !tbaa !11
  %45 = sext i32 %44 to i64
  %46 = getelementptr inbounds %struct.pmix_modex_data, ptr %43, i64 %45
  call void @llvm.memset.p0.i64(ptr align 8 %46, i8 0, i64 280, i1 false)
  store i32 1, ptr %15, align 4, !tbaa !11
  %47 = load ptr, ptr %7, align 8, !tbaa !13
  %48 = load ptr, ptr %8, align 8, !tbaa !3
  %49 = load ptr, ptr %12, align 8, !tbaa !154
  %50 = load i32, ptr %13, align 4, !tbaa !11
  %51 = sext i32 %50 to i64
  %52 = getelementptr inbounds %struct.pmix_modex_data, ptr %49, i64 %51
  %53 = getelementptr inbounds nuw %struct.pmix_modex_data, ptr %52, i32 0, i32 3
  %54 = call i32 @pmix20_bfrop_unpack_sizet(ptr noundef %47, ptr noundef %48, ptr noundef %53, ptr noundef %15, i16 noundef zeroext 4)
  store i32 %54, ptr %16, align 4, !tbaa !11
  %55 = icmp ne i32 0, %54
  br i1 %55, label %56, label %58

56:                                               ; preds = %42
  %57 = load i32, ptr %16, align 4, !tbaa !11
  store i32 %57, ptr %6, align 4
  store i32 1, ptr %17, align 4
  br label %105

58:                                               ; preds = %42
  %59 = load ptr, ptr %12, align 8, !tbaa !154
  %60 = load i32, ptr %13, align 4, !tbaa !11
  %61 = sext i32 %60 to i64
  %62 = getelementptr inbounds %struct.pmix_modex_data, ptr %59, i64 %61
  %63 = getelementptr inbounds nuw %struct.pmix_modex_data, ptr %62, i32 0, i32 3
  %64 = load i64, ptr %63, align 8, !tbaa !156
  %65 = icmp ult i64 0, %64
  br i1 %65, label %66, label %100

66:                                               ; preds = %58
  %67 = load ptr, ptr %12, align 8, !tbaa !154
  %68 = load i32, ptr %13, align 4, !tbaa !11
  %69 = sext i32 %68 to i64
  %70 = getelementptr inbounds %struct.pmix_modex_data, ptr %67, i64 %69
  %71 = getelementptr inbounds nuw %struct.pmix_modex_data, ptr %70, i32 0, i32 3
  %72 = load i64, ptr %71, align 8, !tbaa !156
  %73 = mul i64 %72, 1
  %74 = call noalias ptr @malloc(i64 noundef %73) #14
  %75 = load ptr, ptr %12, align 8, !tbaa !154
  %76 = load i32, ptr %13, align 4, !tbaa !11
  %77 = sext i32 %76 to i64
  %78 = getelementptr inbounds %struct.pmix_modex_data, ptr %75, i64 %77
  %79 = getelementptr inbounds nuw %struct.pmix_modex_data, ptr %78, i32 0, i32 2
  store ptr %74, ptr %79, align 8, !tbaa !158
  %80 = load ptr, ptr %12, align 8, !tbaa !154
  %81 = load i32, ptr %13, align 4, !tbaa !11
  %82 = sext i32 %81 to i64
  %83 = getelementptr inbounds %struct.pmix_modex_data, ptr %80, i64 %82
  %84 = getelementptr inbounds nuw %struct.pmix_modex_data, ptr %83, i32 0, i32 3
  %85 = load i64, ptr %84, align 8, !tbaa !156
  %86 = trunc i64 %85 to i32
  store i32 %86, ptr %15, align 4, !tbaa !11
  %87 = load ptr, ptr %7, align 8, !tbaa !13
  %88 = load ptr, ptr %8, align 8, !tbaa !3
  %89 = load ptr, ptr %12, align 8, !tbaa !154
  %90 = load i32, ptr %13, align 4, !tbaa !11
  %91 = sext i32 %90 to i64
  %92 = getelementptr inbounds %struct.pmix_modex_data, ptr %89, i64 %91
  %93 = getelementptr inbounds nuw %struct.pmix_modex_data, ptr %92, i32 0, i32 2
  %94 = load ptr, ptr %93, align 8, !tbaa !158
  %95 = call i32 @pmix20_bfrop_unpack_byte(ptr noundef %87, ptr noundef %88, ptr noundef %94, ptr noundef %15, i16 noundef zeroext 12)
  store i32 %95, ptr %16, align 4, !tbaa !11
  %96 = icmp ne i32 0, %95
  br i1 %96, label %97, label %99

97:                                               ; preds = %66
  %98 = load i32, ptr %16, align 4, !tbaa !11
  store i32 %98, ptr %6, align 4
  store i32 1, ptr %17, align 4
  br label %105

99:                                               ; preds = %66
  br label %100

100:                                              ; preds = %99, %58
  br label %101

101:                                              ; preds = %100
  %102 = load i32, ptr %13, align 4, !tbaa !11
  %103 = add nsw i32 %102, 1
  store i32 %103, ptr %13, align 4, !tbaa !11
  br label %38, !llvm.loop !159

104:                                              ; preds = %38
  store i32 0, ptr %6, align 4
  store i32 1, ptr %17, align 4
  br label %105

105:                                              ; preds = %104, %97, %56
  call void @llvm.lifetime.end.p0(i64 4, ptr %16) #11
  call void @llvm.lifetime.end.p0(i64 4, ptr %15) #11
  call void @llvm.lifetime.end.p0(i64 4, ptr %14) #11
  call void @llvm.lifetime.end.p0(i64 4, ptr %13) #11
  call void @llvm.lifetime.end.p0(i64 8, ptr %12) #11
  %106 = load i32, ptr %6, align 4
  ret i32 %106
}