; Function Attrs: nounwind uwtable
define i32 @pmix20_bfrop_unpack_modex(ptr noundef %0, ptr noundef %1, ptr noundef %2, ptr noundef readonly captures(none) %3, i16 noundef zeroext %4) local_unnamed_addr #0 {
  %6 = alloca i32, align 4
  call void @llvm.lifetime.start.p0(i64 4, ptr nonnull %6) #10
  %7 = load i32, ptr getelementptr inbounds nuw (i8, ptr @pmix_bfrops_base_framework, i64 76), align 4, !tbaa !7
  %or.cond = icmp ult i32 %7, 64
  br i1 %or.cond, label %8, label %15

8:                                                ; preds = %5
  %9 = zext nneg i32 %7 to i64
  %10 = getelementptr inbounds nuw [0 x %struct.pmix_output_desc_t], ptr @pmix_output_info, i64 0, i64 %9, i32 2
  %11 = load i32, ptr %10, align 4, !tbaa !19
  %12 = icmp sgt i32 %11, 19
  br i1 %12, label %13, label %15

13:                                               ; preds = %8
  %14 = load i32, ptr %3, align 4, !tbaa !3
  tail call void (i32, ptr, ...) @pmix_output(i32 noundef %7, ptr noundef nonnull @.str.24, i32 noundef %14) #10
  br label %15

15:                                               ; preds = %13, %8, %5
  %16 = load i32, ptr %3, align 4, !tbaa !3
  %17 = icmp sgt i32 %16, 0
  br i1 %17, label %.lr.ph, label %pmix20_bfrop_unpack_byte.exit

.lr.ph:                                           ; preds = %15
  %18 = getelementptr inbounds nuw i8, ptr %1, i64 144
  %wide.trip.count = zext nneg i32 %16 to i64
  br label %19

19:                                               ; preds = %.lr.ph, %44
  %indvars.iv = phi i64 [ 0, %.lr.ph ], [ %indvars.iv.next, %44 ]
  %20 = getelementptr inbounds nuw %struct.pmix_modex_data, ptr %2, i64 %indvars.iv
  call void @llvm.memset.p0.i64(ptr noundef nonnull align 8 dereferenceable(280) %20, i8 0, i64 280, i1 false)
  store i32 1, ptr %6, align 4, !tbaa !3
  %21 = getelementptr inbounds nuw i8, ptr %20, i64 272
  %22 = call i32 @pmix20_bfrop_unpack_sizet(ptr noundef %0, ptr noundef %1, ptr noundef nonnull %21, ptr noundef nonnull %6, i16 zeroext poison)
  %.not = icmp eq i32 %22, 0
  br i1 %.not, label %23, label %pmix20_bfrop_unpack_byte.exit

23:                                               ; preds = %19
  %24 = load i64, ptr %21, align 8, !tbaa !109
  %.not32 = icmp eq i64 %24, 0
  br i1 %.not32, label %44, label %25

25:                                               ; preds = %23
  %26 = call noalias ptr @malloc(i64 noundef %24) #12
  %27 = getelementptr inbounds nuw i8, ptr %20, i64 264
  store ptr %26, ptr %27, align 8, !tbaa !111
  %28 = trunc i64 %24 to i32
  store i32 %28, ptr %6, align 4, !tbaa !3
  %29 = load i32, ptr getelementptr inbounds nuw (i8, ptr @pmix_bfrops_base_framework, i64 76), align 4, !tbaa !7
  %or.cond.i = icmp ult i32 %29, 64
  br i1 %or.cond.i, label %30, label %36

30:                                               ; preds = %25
  %31 = zext nneg i32 %29 to i64
  %32 = getelementptr inbounds nuw [0 x %struct.pmix_output_desc_t], ptr @pmix_output_info, i64 0, i64 %31, i32 2
  %33 = load i32, ptr %32, align 4, !tbaa !19
  %34 = icmp sgt i32 %33, 19
  br i1 %34, label %35, label %36

35:                                               ; preds = %30
  call void (i32, ptr, ...) @pmix_output(i32 noundef %29, ptr noundef nonnull @.str.5, i32 noundef %28) #10
  %.pre = load i32, ptr %6, align 4, !tbaa !3
  br label %36

36:                                               ; preds = %35, %30, %25
  %37 = phi i32 [ %.pre, %35 ], [ %28, %30 ], [ %28, %25 ]
  %38 = sext i32 %37 to i64
  %39 = call zeroext i1 @pmix_bfrop_too_small(ptr noundef %1, i64 noundef %38) #10
  br i1 %39, label %pmix20_bfrop_unpack_byte.exit, label %pmix20_bfrop_unpack_byte.exit.thread

pmix20_bfrop_unpack_byte.exit.thread:             ; preds = %36
  %40 = load ptr, ptr %18, align 8, !tbaa !34
  %41 = load i32, ptr %6, align 4, !tbaa !3
  %42 = sext i32 %41 to i64
  call void @llvm.memcpy.p0.p0.i64(ptr align 1 %26, ptr align 1 %40, i64 %42, i1 false)
  %43 = getelementptr inbounds i8, ptr %40, i64 %42
  store ptr %43, ptr %18, align 8, !tbaa !34
  br label %44

44:                                               ; preds = %pmix20_bfrop_unpack_byte.exit.thread, %23
  %indvars.iv.next = add nuw nsw i64 %indvars.iv, 1
  %exitcond.not = icmp eq i64 %indvars.iv.next, %wide.trip.count
  br i1 %exitcond.not, label %pmix20_bfrop_unpack_byte.exit, label %19, !llvm.loop !112

pmix20_bfrop_unpack_byte.exit:                    ; preds = %19, %44, %36, %15
  %.0 = phi i32 [ 0, %15 ], [ -50, %36 ], [ 0, %44 ], [ %22, %19 ]
  call void @llvm.lifetime.end.p0(i64 4, ptr nonnull %6) #10
  ret i32 %.0
}